target datalayout = "e-m:e-p270:32:32-p271:32:32-p272:64:64-i64:64-i128:128-f80:128-n8:16:32:64-S128"
target triple = "x86_64-unknown-linux-gnu"

%struct.Node = type { i32, ptr, ptr, ptr, ptr, ptr, ptr, ptr, ptr, ptr, ptr, ptr, ptr, ptr, ptr, ptr, ptr, i8, ptr, ptr, ptr, ptr, ptr, ptr, i64, i64, ptr, ptr, ptr, ptr, ptr, ptr, ptr, i64, x86_fp80 }
%struct.InitDesg = type { ptr, i32, ptr, ptr }

; Function Attrs: nounwind uwtable
define internal ptr @new_node(i32 noundef %kind, ptr noundef %tok) #0 {
entry:
  %kind.addr = alloca i32, align 4
  %tok.addr = alloca ptr, align 8
  %node = alloca ptr, align 8
  store i32 %kind, ptr %kind.addr, align 4
  store ptr %tok, ptr %tok.addr, align 8
  %call = call noalias ptr @calloc(i64 noundef 1, i64 noundef 288) #8
  store ptr %call, ptr %node, align 8
  %0 = load i32, ptr %kind.addr, align 4
  %1 = load ptr, ptr %node, align 8
  %kind1 = getelementptr inbounds %struct.Node, ptr %1, i32 0, i32 0
  store i32 %0, ptr %kind1, align 16
  %2 = load ptr, ptr %tok.addr, align 8
  %3 = load ptr, ptr %node, align 8
  %tok2 = getelementptr inbounds %struct.Node, ptr %3, i32 0, i32 3
  store ptr %2, ptr %tok2, align 8
  %4 = load ptr, ptr %node, align 8
  ret ptr %4
}

; Function Attrs: nounwind uwtable
define internal ptr @new_num(i64 noundef %val, ptr noundef %tok) #0 {
entry:
  %val.addr = alloca i64, align 8
  %tok.addr = alloca ptr, align 8
  %node = alloca ptr, align 8
  store i64 %val, ptr %val.addr, align 8
  store ptr %tok, ptr %tok.addr, align 8
  %0 = load ptr, ptr %tok.addr, align 8
  %call = call ptr @new_node(i32 noundef 42, ptr noundef %0)
  store ptr %call, ptr %node, align 8
  %1 = load i64, ptr %val.addr, align 8
  %2 = load ptr, ptr %node, align 8
  %val1 = getelementptr inbounds %struct.Node, ptr %2, i32 0, i32 33
  store i64 %1, ptr %val1, align 8
  %3 = load ptr, ptr %node, align 8
  ret ptr %3
}

; Function Attrs: nounwind uwtable
define internal ptr @new_unary(i32 noundef %kind, ptr noundef %expr, ptr noundef %tok) #0 {
entry:
  %kind.addr = alloca i32, align 4
  %expr.addr = alloca ptr, align 8
  %tok.addr = alloca ptr, align 8
  %node = alloca ptr, align 8
  store i32 %kind, ptr %kind.addr, align 4
  store ptr %expr, ptr %expr.addr, align 8
  store ptr %tok, ptr %tok.addr, align 8
  %0 = load i32, ptr %kind.addr, align 4
  %1 = load ptr, ptr %tok.addr, align 8
  %call = call ptr @new_node(i32 noundef %0, ptr noundef %1)
  store ptr %call, ptr %node, align 8
  %2 = load ptr, ptr %expr.addr, align 8
  %3 = load ptr, ptr %node, align 8
  %lhs = getelementptr inbounds %struct.Node, ptr %3, i32 0, i32 4
  store ptr %2, ptr %lhs, align 16
  %4 = load ptr, ptr %node, align 8
  ret ptr %4
}

; Function Attrs: nounwind uwtable
define internal ptr @new_var_node(ptr noundef %var, ptr noundef %tok) #0 {
entry:
  %var.addr = alloca ptr, align 8
  %tok.addr = alloca ptr, align 8
  %node = alloca ptr, align 8
  store ptr %var, ptr %var.addr, align 8
  store ptr %tok, ptr %tok.addr, align 8
  %0 = load ptr, ptr %tok.addr, align 8
  %call = call ptr @new_node(i32 noundef 40, ptr noundef %0)
  store ptr %call, ptr %node, align 8
  %1 = load ptr, ptr %var.addr, align 8
  %2 = load ptr, ptr %node, align 8
  %var1 = getelementptr inbounds %struct.Node, ptr %2, i32 0, i32 32
  store ptr %1, ptr %var1, align 16
  %3 = load ptr, ptr %node, align 8
  ret ptr %3
}

; Function Attrs: nounwind uwtable
define internal ptr @init_desg_expr(ptr noundef %desg, ptr noundef %tok) #0 {
entry:
  %retval = alloca ptr, align 8
  %desg.addr = alloca ptr, align 8
  %tok.addr = alloca ptr, align 8
  %node = alloca ptr, align 8
  %lhs = alloca ptr, align 8
  %rhs = alloca ptr, align 8
  store ptr %desg, ptr %desg.addr, align 8
  store ptr %tok, ptr %tok.addr, align 8
  %0 = load ptr, ptr %desg.addr, align 8
  %var = getelementptr inbounds %struct.InitDesg, ptr %0, i32 0, i32 3
  %1 = load ptr, ptr %var, align 8
  %tobool = icmp ne ptr %1, null
  br i1 %tobool, label %if.then, label %if.end

if.then:                                          ; preds = %entry
  %2 = load ptr, ptr %desg.addr, align 8
  %var1 = getelementptr inbounds %struct.InitDesg, ptr %2, i32 0, i32 3
  %3 = load ptr, ptr %var1, align 8
  %4 = load ptr, ptr %tok.addr, align 8
  %call = call ptr @new_var_node(ptr noundef %3, ptr noundef %4)
  store ptr %call, ptr %retval, align 8
  br label %return

if.end:                                           ; preds = %entry
  %5 = load ptr, ptr %desg.addr, align 8
  %member = getelementptr inbounds %struct.InitDesg, ptr %5, i32 0, i32 2
  %6 = load ptr, ptr %member, align 8
  %tobool2 = icmp ne ptr %6, null
  br i1 %tobool2, label %if.then3, label %if.end8

if.then3:                                         ; preds = %if.end
  %7 = load ptr, ptr %desg.addr, align 8
  %next = getelementptr inbounds %struct.InitDesg, ptr %7, i32 0, i32 0
  %8 = load ptr, ptr %next, align 8
  %9 = load ptr, ptr %tok.addr, align 8
  %call4 = call ptr @init_desg_expr(ptr noundef %8, ptr noundef %9)
  %10 = load ptr, ptr %tok.addr, align 8
  %call5 = call ptr @new_unary(i32 noundef 19, ptr noundef %call4, ptr noundef %10)
  store ptr %call5, ptr %node, align 8
  %11 = load ptr, ptr %desg.addr, align 8
  %member6 = getelementptr inbounds %struct.InitDesg, ptr %11, i32 0, i32 2
  %12 = load ptr, ptr %member6, align 8
  %13 = load ptr, ptr %node, align 8
  %member7 = getelementptr inbounds %struct.Node, ptr %13, i32 0, i32 14
  store ptr %12, ptr %member7, align 16
  %14 = load ptr, ptr %node, align 8
  store ptr %14, ptr %retval, align 8
  br label %return

if.end8:                                          ; preds = %if.end
  %15 = load ptr, ptr %desg.addr, align 8
  %next9 = getelementptr inbounds %struct.InitDesg, ptr %15, i32 0, i32 0
  %16 = load ptr, ptr %next9, align 8
  %17 = load ptr, ptr %tok.addr, align 8
  %call10 = call ptr @init_desg_expr(ptr noundef %16, ptr noundef %17)
  store ptr %call10, ptr %lhs, align 8
  %18 = load ptr, ptr %desg.addr, align 8
  %idx = getelementptr inbounds %struct.InitDesg, ptr %18, i32 0, i32 1
  %19 = load i32, ptr %idx, align 8
  %conv = sext i32 %19 to i64
  %20 = load ptr, ptr %tok.addr, align 8
  %call11 = call ptr @new_num(i64 noundef %conv, ptr noundef %20)
  store ptr %call11, ptr %rhs, align 8
  %21 = load ptr, ptr %lhs, align 8
  %22 = load ptr, ptr %rhs, align 8
  %23 = load ptr, ptr %tok.addr, align 8
  %call12 = call ptr @new_add(ptr noundef %21, ptr noundef %22, ptr noundef %23)
  %24 = load ptr, ptr %tok.addr, align 8
  %call13 = call ptr @new_unary(i32 noundef 21, ptr noundef %call12, ptr noundef %24)
  store ptr %call13, ptr %retval, align 8
  br label %return

return:                                           ; preds = %if.end8, %if.then3, %if.then
  %25 = load ptr, ptr %retval, align 8
  ret ptr %25
}