; Function Attrs: nounwind uwtable
define internal fastcc noalias noundef ptr @init_desg_expr(ptr nocapture noundef readonly %desg, ptr noundef %tok) unnamed_addr #0 {
entry:
  %var = getelementptr inbounds %struct.InitDesg, ptr %desg, i64 0, i32 3
  %0 = load ptr, ptr %var, align 8
  %tobool.not = icmp eq ptr %0, null
  br i1 %tobool.not, label %if.end, label %if.then

if.then:                                          ; preds = %entry
  %call.i.i = tail call noalias noundef dereferenceable_or_null(288) ptr @calloc(i64 noundef 1, i64 noundef 288) #14
  store i32 40, ptr %call.i.i, align 16
  %tok2.i.i = getelementptr inbounds %struct.Node, ptr %call.i.i, i64 0, i32 3
  store ptr %tok, ptr %tok2.i.i, align 8
  %var1.i = getelementptr inbounds %struct.Node, ptr %call.i.i, i64 0, i32 32
  store ptr %0, ptr %var1.i, align 16
  br label %common.ret

if.end:                                           ; preds = %entry
  %member = getelementptr inbounds %struct.InitDesg, ptr %desg, i64 0, i32 2
  %1 = load ptr, ptr %member, align 8
  %tobool2.not = icmp eq ptr %1, null
  %2 = load ptr, ptr %desg, align 8
  %call10 = tail call fastcc ptr @init_desg_expr(ptr noundef %2, ptr noundef %tok)
  br i1 %tobool2.not, label %if.end8, label %if.then3

common.ret:                                       ; preds = %if.then, %if.end8, %if.then3
  %common.ret.op = phi ptr [ %call.i.i14, %if.then3 ], [ %call.i.i18, %if.end8 ], [ %call.i.i, %if.then ]
  ret ptr %common.ret.op

if.then3:                                         ; preds = %if.end
  %call.i.i14 = tail call noalias noundef dereferenceable_or_null(288) ptr @calloc(i64 noundef 1, i64 noundef 288) #14
  store i32 19, ptr %call.i.i14, align 16
  %tok2.i.i15 = getelementptr inbounds %struct.Node, ptr %call.i.i14, i64 0, i32 3
  store ptr %tok, ptr %tok2.i.i15, align 8
  %lhs.i = getelementptr inbounds %struct.Node, ptr %call.i.i14, i64 0, i32 4
  store ptr %call10, ptr %lhs.i, align 16
  %3 = load ptr, ptr %member, align 8
  %member7 = getelementptr inbounds %struct.Node, ptr %call.i.i14, i64 0, i32 14
  store ptr %3, ptr %member7, align 16
  br label %common.ret

if.end8:                                          ; preds = %if.end
  %idx = getelementptr inbounds %struct.InitDesg, ptr %desg, i64 0, i32 1
  %4 = load i32, ptr %idx, align 8
  %conv = sext i32 %4 to i64
  %call.i.i16 = tail call noalias noundef dereferenceable_or_null(288) ptr @calloc(i64 noundef 1, i64 noundef 288) #14
  store i32 42, ptr %call.i.i16, align 16
  %tok2.i.i17 = getelementptr inbounds %struct.Node, ptr %call.i.i16, i64 0, i32 3
  store ptr %tok, ptr %tok2.i.i17, align 8
  %val1.i = getelementptr inbounds %struct.Node, ptr %call.i.i16, i64 0, i32 33
  store i64 %conv, ptr %val1.i, align 8
  %call12 = tail call fastcc ptr @new_add(ptr noundef %call10, ptr noundef nonnull %call.i.i16, ptr noundef %tok)
  %call.i.i18 = tail call noalias noundef dereferenceable_or_null(288) ptr @calloc(i64 noundef 1, i64 noundef 288) #14
  store i32 21, ptr %call.i.i18, align 16
  %tok2.i.i19 = getelementptr inbounds %struct.Node, ptr %call.i.i18, i64 0, i32 3
  store ptr %tok, ptr %tok2.i.i19, align 8
  %lhs.i20 = getelementptr inbounds %struct.Node, ptr %call.i.i18, i64 0, i32 4
  store ptr %call12, ptr %lhs.i20, align 16
  br label %common.ret
}